
PID.elf:     file format elf32-avr

Sections:
Idx Name          Size      VMA       LMA       File off  Algn
  0 .data         0000000c  00800200  00000b9e  00000c32  2**0
                  CONTENTS, ALLOC, LOAD, DATA
  1 .text         00000b9e  00000000  00000000  00000094  2**1
                  CONTENTS, ALLOC, LOAD, READONLY, CODE
  2 .bss          00000022  0080020c  0080020c  00000c3e  2**0
                  ALLOC
  3 .stab         00001c2c  00000000  00000000  00000c40  2**2
                  CONTENTS, READONLY, DEBUGGING
  4 .stabstr      000005e5  00000000  00000000  0000286c  2**0
                  CONTENTS, READONLY, DEBUGGING
  5 .debug_aranges 000000a0  00000000  00000000  00002e58  2**3
                  CONTENTS, READONLY, DEBUGGING
  6 .debug_info   00000ec5  00000000  00000000  00002ef8  2**0
                  CONTENTS, READONLY, DEBUGGING
  7 .debug_abbrev 000002e0  00000000  00000000  00003dbd  2**0
                  CONTENTS, READONLY, DEBUGGING
  8 .debug_line   000005cb  00000000  00000000  0000409d  2**0
                  CONTENTS, READONLY, DEBUGGING
  9 .debug_frame  00000230  00000000  00000000  00004668  2**2
                  CONTENTS, READONLY, DEBUGGING
 10 .debug_str    0000034e  00000000  00000000  00004898  2**0
                  CONTENTS, READONLY, DEBUGGING
 11 .debug_loc    000004db  00000000  00000000  00004be6  2**0
                  CONTENTS, READONLY, DEBUGGING

Disassembly of section .text:

00000000 <__vectors>:
   0:	0c 94 72 00 	jmp	0xe4	; 0xe4 <__ctors_end>
   4:	0c 94 93 00 	jmp	0x126	; 0x126 <__bad_interrupt>
   8:	0c 94 93 00 	jmp	0x126	; 0x126 <__bad_interrupt>
   c:	0c 94 93 00 	jmp	0x126	; 0x126 <__bad_interrupt>
  10:	0c 94 93 00 	jmp	0x126	; 0x126 <__bad_interrupt>
  14:	0c 94 93 00 	jmp	0x126	; 0x126 <__bad_interrupt>
  18:	0c 94 93 00 	jmp	0x126	; 0x126 <__bad_interrupt>
  1c:	0c 94 93 00 	jmp	0x126	; 0x126 <__bad_interrupt>
  20:	0c 94 93 00 	jmp	0x126	; 0x126 <__bad_interrupt>
  24:	0c 94 93 00 	jmp	0x126	; 0x126 <__bad_interrupt>
  28:	0c 94 93 00 	jmp	0x126	; 0x126 <__bad_interrupt>
  2c:	0c 94 93 00 	jmp	0x126	; 0x126 <__bad_interrupt>
  30:	0c 94 93 00 	jmp	0x126	; 0x126 <__bad_interrupt>
  34:	0c 94 93 00 	jmp	0x126	; 0x126 <__bad_interrupt>
  38:	0c 94 93 00 	jmp	0x126	; 0x126 <__bad_interrupt>
  3c:	0c 94 93 00 	jmp	0x126	; 0x126 <__bad_interrupt>
  40:	0c 94 93 00 	jmp	0x126	; 0x126 <__bad_interrupt>
  44:	0c 94 93 00 	jmp	0x126	; 0x126 <__bad_interrupt>
  48:	0c 94 93 00 	jmp	0x126	; 0x126 <__bad_interrupt>
  4c:	0c 94 93 00 	jmp	0x126	; 0x126 <__bad_interrupt>
  50:	0c 94 93 00 	jmp	0x126	; 0x126 <__bad_interrupt>
  54:	0c 94 93 00 	jmp	0x126	; 0x126 <__bad_interrupt>
  58:	0c 94 93 00 	jmp	0x126	; 0x126 <__bad_interrupt>
  5c:	0c 94 93 00 	jmp	0x126	; 0x126 <__bad_interrupt>
  60:	0c 94 93 00 	jmp	0x126	; 0x126 <__bad_interrupt>
  64:	0c 94 93 00 	jmp	0x126	; 0x126 <__bad_interrupt>
  68:	0c 94 93 00 	jmp	0x126	; 0x126 <__bad_interrupt>
  6c:	0c 94 93 00 	jmp	0x126	; 0x126 <__bad_interrupt>
  70:	0c 94 93 00 	jmp	0x126	; 0x126 <__bad_interrupt>
  74:	0c 94 93 00 	jmp	0x126	; 0x126 <__bad_interrupt>
  78:	0c 94 93 00 	jmp	0x126	; 0x126 <__bad_interrupt>
  7c:	0c 94 93 00 	jmp	0x126	; 0x126 <__bad_interrupt>
  80:	0c 94 93 00 	jmp	0x126	; 0x126 <__bad_interrupt>
  84:	0c 94 93 00 	jmp	0x126	; 0x126 <__bad_interrupt>
  88:	0c 94 93 00 	jmp	0x126	; 0x126 <__bad_interrupt>
  8c:	0c 94 93 00 	jmp	0x126	; 0x126 <__bad_interrupt>
  90:	0c 94 93 00 	jmp	0x126	; 0x126 <__bad_interrupt>
  94:	0c 94 93 00 	jmp	0x126	; 0x126 <__bad_interrupt>
  98:	0c 94 93 00 	jmp	0x126	; 0x126 <__bad_interrupt>
  9c:	0c 94 93 00 	jmp	0x126	; 0x126 <__bad_interrupt>
  a0:	0c 94 93 00 	jmp	0x126	; 0x126 <__bad_interrupt>
  a4:	0c 94 93 00 	jmp	0x126	; 0x126 <__bad_interrupt>
  a8:	0c 94 93 00 	jmp	0x126	; 0x126 <__bad_interrupt>
  ac:	0c 94 93 00 	jmp	0x126	; 0x126 <__bad_interrupt>
  b0:	0c 94 93 00 	jmp	0x126	; 0x126 <__bad_interrupt>
  b4:	0c 94 93 00 	jmp	0x126	; 0x126 <__bad_interrupt>
  b8:	0c 94 93 00 	jmp	0x126	; 0x126 <__bad_interrupt>
  bc:	0c 94 93 00 	jmp	0x126	; 0x126 <__bad_interrupt>
  c0:	0c 94 93 00 	jmp	0x126	; 0x126 <__bad_interrupt>
  c4:	0c 94 93 00 	jmp	0x126	; 0x126 <__bad_interrupt>
  c8:	0c 94 93 00 	jmp	0x126	; 0x126 <__bad_interrupt>
  cc:	0c 94 93 00 	jmp	0x126	; 0x126 <__bad_interrupt>
  d0:	0c 94 93 00 	jmp	0x126	; 0x126 <__bad_interrupt>
  d4:	0c 94 93 00 	jmp	0x126	; 0x126 <__bad_interrupt>
  d8:	0c 94 93 00 	jmp	0x126	; 0x126 <__bad_interrupt>
  dc:	0c 94 93 00 	jmp	0x126	; 0x126 <__bad_interrupt>
  e0:	0c 94 93 00 	jmp	0x126	; 0x126 <__bad_interrupt>

000000e4 <__ctors_end>:
  e4:	11 24       	eor	r1, r1
  e6:	1f be       	out	0x3f, r1	; 63
  e8:	cf ef       	ldi	r28, 0xFF	; 255
  ea:	d1 e2       	ldi	r29, 0x21	; 33
  ec:	de bf       	out	0x3e, r29	; 62
  ee:	cd bf       	out	0x3d, r28	; 61
  f0:	00 e0       	ldi	r16, 0x00	; 0
  f2:	0c bf       	out	0x3c, r16	; 60

000000f4 <__do_copy_data>:
  f4:	12 e0       	ldi	r17, 0x02	; 2
  f6:	a0 e0       	ldi	r26, 0x00	; 0
  f8:	b2 e0       	ldi	r27, 0x02	; 2
  fa:	ee e9       	ldi	r30, 0x9E	; 158
  fc:	fb e0       	ldi	r31, 0x0B	; 11
  fe:	00 e0       	ldi	r16, 0x00	; 0
 100:	0b bf       	out	0x3b, r16	; 59
 102:	02 c0       	rjmp	.+4      	; 0x108 <__do_copy_data+0x14>
 104:	07 90       	elpm	r0, Z+
 106:	0d 92       	st	X+, r0
 108:	ac 30       	cpi	r26, 0x0C	; 12
 10a:	b1 07       	cpc	r27, r17
 10c:	d9 f7       	brne	.-10     	; 0x104 <__do_copy_data+0x10>

0000010e <__do_clear_bss>:
 10e:	12 e0       	ldi	r17, 0x02	; 2
 110:	ac e0       	ldi	r26, 0x0C	; 12
 112:	b2 e0       	ldi	r27, 0x02	; 2
 114:	01 c0       	rjmp	.+2      	; 0x118 <.do_clear_bss_start>

00000116 <.do_clear_bss_loop>:
 116:	1d 92       	st	X+, r1

00000118 <.do_clear_bss_start>:
 118:	ae 32       	cpi	r26, 0x2E	; 46
 11a:	b1 07       	cpc	r27, r17
 11c:	e1 f7       	brne	.-8      	; 0x116 <.do_clear_bss_loop>
 11e:	0e 94 5b 03 	call	0x6b6	; 0x6b6 <main>
 122:	0c 94 cd 05 	jmp	0xb9a	; 0xb9a <_exit>

00000126 <__bad_interrupt>:
 126:	0c 94 00 00 	jmp	0	; 0x0 <__vectors>

0000012a <lcd_set_4bit>:
	#else
		//round up by default
		__ticks_dc = (uint32_t)(ceil(fabs(__tmp)));
	#endif

	__builtin_avr_delay_cycles(__ticks_dc);
 12a:	89 ef       	ldi	r24, 0xF9	; 249
 12c:	90 e0       	ldi	r25, 0x00	; 0
 12e:	01 97       	sbiw	r24, 0x01	; 1
 130:	f1 f7       	brne	.-4      	; 0x12e <lcd_set_4bit+0x4>
 132:	00 c0       	rjmp	.+0      	; 0x134 <lcd_set_4bit+0xa>
 134:	00 00       	nop
/*****Function to Reset LCD*****/
void lcd_set_4bit()
{
	_delay_ms(1);

	cbit(lcd_port,RS);				//RS=0 --- Command Input
 136:	40 98       	cbi	0x08, 0	; 8
	cbit(lcd_port,RW);				//RW=0 --- Writing to LCD
 138:	41 98       	cbi	0x08, 1	; 8
	lcd_port = 0x30;				//Sending 3
 13a:	80 e3       	ldi	r24, 0x30	; 48
 13c:	88 b9       	out	0x08, r24	; 8
	sbit(lcd_port,EN);				//Set Enable Pin
 13e:	42 9a       	sbi	0x08, 2	; 8
 140:	e1 ee       	ldi	r30, 0xE1	; 225
 142:	f4 e0       	ldi	r31, 0x04	; 4
 144:	31 97       	sbiw	r30, 0x01	; 1
 146:	f1 f7       	brne	.-4      	; 0x144 <lcd_set_4bit+0x1a>
 148:	00 c0       	rjmp	.+0      	; 0x14a <lcd_set_4bit+0x20>
 14a:	00 00       	nop
	_delay_ms(5);					//Delay
	cbit(lcd_port,EN);				//Clear Enable Pin
 14c:	42 98       	cbi	0x08, 2	; 8
 14e:	e9 ef       	ldi	r30, 0xF9	; 249
 150:	f0 e0       	ldi	r31, 0x00	; 0
 152:	31 97       	sbiw	r30, 0x01	; 1
 154:	f1 f7       	brne	.-4      	; 0x152 <lcd_set_4bit+0x28>
 156:	00 c0       	rjmp	.+0      	; 0x158 <lcd_set_4bit+0x2e>
 158:	00 00       	nop

	_delay_ms(1);

	cbit(lcd_port,RS);				//RS=0 --- Command Input
 15a:	40 98       	cbi	0x08, 0	; 8
	cbit(lcd_port,RW);				//RW=0 --- Writing to LCD
 15c:	41 98       	cbi	0x08, 1	; 8
	lcd_port = 0x30;				//Sending 3
 15e:	88 b9       	out	0x08, r24	; 8
	sbit(lcd_port,EN);				//Set Enable Pin
 160:	42 9a       	sbi	0x08, 2	; 8
 162:	e1 ee       	ldi	r30, 0xE1	; 225
 164:	f4 e0       	ldi	r31, 0x04	; 4
 166:	31 97       	sbiw	r30, 0x01	; 1
 168:	f1 f7       	brne	.-4      	; 0x166 <lcd_set_4bit+0x3c>
 16a:	00 c0       	rjmp	.+0      	; 0x16c <lcd_set_4bit+0x42>
 16c:	00 00       	nop
	_delay_ms(5);					//Delay
	cbit(lcd_port,EN);				//Clear Enable Pin
 16e:	42 98       	cbi	0x08, 2	; 8
 170:	e9 ef       	ldi	r30, 0xF9	; 249
 172:	f0 e0       	ldi	r31, 0x00	; 0
 174:	31 97       	sbiw	r30, 0x01	; 1
 176:	f1 f7       	brne	.-4      	; 0x174 <lcd_set_4bit+0x4a>
 178:	00 c0       	rjmp	.+0      	; 0x17a <lcd_set_4bit+0x50>
 17a:	00 00       	nop

	_delay_ms(1);

	cbit(lcd_port,RS);				//RS=0 --- Command Input
 17c:	40 98       	cbi	0x08, 0	; 8
	cbit(lcd_port,RW);				//RW=0 --- Writing to LCD
 17e:	41 98       	cbi	0x08, 1	; 8
	lcd_port = 0x30;				//Sending 3
 180:	88 b9       	out	0x08, r24	; 8
	sbit(lcd_port,EN);				//Set Enable Pin
 182:	42 9a       	sbi	0x08, 2	; 8
 184:	81 ee       	ldi	r24, 0xE1	; 225
 186:	94 e0       	ldi	r25, 0x04	; 4
 188:	01 97       	sbiw	r24, 0x01	; 1
 18a:	f1 f7       	brne	.-4      	; 0x188 <lcd_set_4bit+0x5e>
 18c:	00 c0       	rjmp	.+0      	; 0x18e <lcd_set_4bit+0x64>
 18e:	00 00       	nop
	_delay_ms(5);					//Delay
	cbit(lcd_port,EN);				//Clear Enable Pin
 190:	42 98       	cbi	0x08, 2	; 8
 192:	e9 ef       	ldi	r30, 0xF9	; 249
 194:	f0 e0       	ldi	r31, 0x00	; 0
 196:	31 97       	sbiw	r30, 0x01	; 1
 198:	f1 f7       	brne	.-4      	; 0x196 <lcd_set_4bit+0x6c>
 19a:	00 c0       	rjmp	.+0      	; 0x19c <lcd_set_4bit+0x72>
 19c:	00 00       	nop

	_delay_ms(1);

	cbit(lcd_port,RS);				//RS=0 --- Command Input
 19e:	40 98       	cbi	0x08, 0	; 8
	cbit(lcd_port,RW);				//RW=0 --- Writing to LCD
 1a0:	41 98       	cbi	0x08, 1	; 8
	lcd_port = 0x20;				//Sending 2 to initialise LCD 4-bit mode
 1a2:	80 e2       	ldi	r24, 0x20	; 32
 1a4:	88 b9       	out	0x08, r24	; 8
	sbit(lcd_port,EN);				//Set Enable Pin
 1a6:	42 9a       	sbi	0x08, 2	; 8
 1a8:	81 ee       	ldi	r24, 0xE1	; 225
 1aa:	94 e0       	ldi	r25, 0x04	; 4
 1ac:	01 97       	sbiw	r24, 0x01	; 1
 1ae:	f1 f7       	brne	.-4      	; 0x1ac <lcd_set_4bit+0x82>
 1b0:	00 c0       	rjmp	.+0      	; 0x1b2 <lcd_set_4bit+0x88>
 1b2:	00 00       	nop
	_delay_ms(5);					//Delay
	cbit(lcd_port,EN);				//Clear Enable Pin
 1b4:	42 98       	cbi	0x08, 2	; 8

	
}
 1b6:	08 95       	ret

000001b8 <lcd_wr_command>:
void lcd_wr_command(unsigned char cmd)
{
	unsigned char temp;
	temp = cmd;
	temp = temp & 0xF0;
	lcd_port &= 0x0F;
 1b8:	98 b1       	in	r25, 0x08	; 8
 1ba:	9f 70       	andi	r25, 0x0F	; 15
 1bc:	98 b9       	out	0x08, r25	; 8
	lcd_port |= temp;
 1be:	98 b1       	in	r25, 0x08	; 8
/*****Function to Write Command on LCD*****/
void lcd_wr_command(unsigned char cmd)
{
	unsigned char temp;
	temp = cmd;
	temp = temp & 0xF0;
 1c0:	28 2f       	mov	r18, r24
 1c2:	20 7f       	andi	r18, 0xF0	; 240
	lcd_port &= 0x0F;
	lcd_port |= temp;
 1c4:	92 2b       	or	r25, r18
 1c6:	98 b9       	out	0x08, r25	; 8
	cbit(lcd_port,RS);
 1c8:	40 98       	cbi	0x08, 0	; 8
	cbit(lcd_port,RW);
 1ca:	41 98       	cbi	0x08, 1	; 8
	sbit(lcd_port,EN);
 1cc:	42 9a       	sbi	0x08, 2	; 8
 1ce:	e1 ee       	ldi	r30, 0xE1	; 225
 1d0:	f4 e0       	ldi	r31, 0x04	; 4
 1d2:	31 97       	sbiw	r30, 0x01	; 1
 1d4:	f1 f7       	brne	.-4      	; 0x1d2 <lcd_wr_command+0x1a>
 1d6:	00 c0       	rjmp	.+0      	; 0x1d8 <lcd_wr_command+0x20>
 1d8:	00 00       	nop
	_delay_ms(5);
	cbit(lcd_port,EN);
 1da:	42 98       	cbi	0x08, 2	; 8
	
	cmd = cmd & 0x0F;
	cmd = cmd<<4;
	lcd_port &= 0x0F;
 1dc:	98 b1       	in	r25, 0x08	; 8
 1de:	9f 70       	andi	r25, 0x0F	; 15
 1e0:	98 b9       	out	0x08, r25	; 8
	lcd_port |= cmd;
 1e2:	98 b1       	in	r25, 0x08	; 8
	sbit(lcd_port,EN);
	_delay_ms(5);
	cbit(lcd_port,EN);
	
	cmd = cmd & 0x0F;
	cmd = cmd<<4;
 1e4:	82 95       	swap	r24
 1e6:	80 7f       	andi	r24, 0xF0	; 240
	lcd_port &= 0x0F;
	lcd_port |= cmd;
 1e8:	89 2b       	or	r24, r25
 1ea:	88 b9       	out	0x08, r24	; 8
	cbit(lcd_port,RS);
 1ec:	40 98       	cbi	0x08, 0	; 8
	cbit(lcd_port,RW);
 1ee:	41 98       	cbi	0x08, 1	; 8
	sbit(lcd_port,EN);
 1f0:	42 9a       	sbi	0x08, 2	; 8
 1f2:	81 ee       	ldi	r24, 0xE1	; 225
 1f4:	94 e0       	ldi	r25, 0x04	; 4
 1f6:	01 97       	sbiw	r24, 0x01	; 1
 1f8:	f1 f7       	brne	.-4      	; 0x1f6 <lcd_wr_command+0x3e>
 1fa:	00 c0       	rjmp	.+0      	; 0x1fc <lcd_wr_command+0x44>
 1fc:	00 00       	nop
	_delay_ms(5);
	cbit(lcd_port,EN);
 1fe:	42 98       	cbi	0x08, 2	; 8
}
 200:	08 95       	ret

00000202 <lcd_init>:
 202:	89 ef       	ldi	r24, 0xF9	; 249
 204:	90 e0       	ldi	r25, 0x00	; 0
 206:	01 97       	sbiw	r24, 0x01	; 1
 208:	f1 f7       	brne	.-4      	; 0x206 <lcd_init+0x4>
 20a:	00 c0       	rjmp	.+0      	; 0x20c <lcd_init+0xa>
 20c:	00 00       	nop
/*****Function to Initialize LCD*****/
void lcd_init()
{
	_delay_ms(1);

	lcd_wr_command(0x28);			//LCD 4-bit mode and 2 lines.
 20e:	88 e2       	ldi	r24, 0x28	; 40
 210:	0e 94 dc 00 	call	0x1b8	; 0x1b8 <lcd_wr_command>
	lcd_wr_command(0x01);
 214:	81 e0       	ldi	r24, 0x01	; 1
 216:	0e 94 dc 00 	call	0x1b8	; 0x1b8 <lcd_wr_command>
	lcd_wr_command(0x06);
 21a:	86 e0       	ldi	r24, 0x06	; 6
 21c:	0e 94 dc 00 	call	0x1b8	; 0x1b8 <lcd_wr_command>
	lcd_wr_command(0x0E);
 220:	8e e0       	ldi	r24, 0x0E	; 14
 222:	0e 94 dc 00 	call	0x1b8	; 0x1b8 <lcd_wr_command>
	lcd_wr_command(0x80);
 226:	80 e8       	ldi	r24, 0x80	; 128
 228:	0e 94 dc 00 	call	0x1b8	; 0x1b8 <lcd_wr_command>
	
}
 22c:	08 95       	ret

0000022e <lcd_wr_char>:
void lcd_wr_char(char letter)
{
	char temp;
	temp = letter;
	temp = (temp & 0xF0);
	lcd_port &= 0x0F;
 22e:	98 b1       	in	r25, 0x08	; 8
 230:	9f 70       	andi	r25, 0x0F	; 15
 232:	98 b9       	out	0x08, r25	; 8
	lcd_port |= temp;
 234:	98 b1       	in	r25, 0x08	; 8
/*****Function to Write Data on LCD*****/
void lcd_wr_char(char letter)
{
	char temp;
	temp = letter;
	temp = (temp & 0xF0);
 236:	28 2f       	mov	r18, r24
 238:	20 7f       	andi	r18, 0xF0	; 240
	lcd_port &= 0x0F;
	lcd_port |= temp;
 23a:	92 2b       	or	r25, r18
 23c:	98 b9       	out	0x08, r25	; 8
	sbit(lcd_port,RS);
 23e:	40 9a       	sbi	0x08, 0	; 8
	cbit(lcd_port,RW);
 240:	41 98       	cbi	0x08, 1	; 8
	sbit(lcd_port,EN);
 242:	42 9a       	sbi	0x08, 2	; 8
 244:	e1 ee       	ldi	r30, 0xE1	; 225
 246:	f4 e0       	ldi	r31, 0x04	; 4
 248:	31 97       	sbiw	r30, 0x01	; 1
 24a:	f1 f7       	brne	.-4      	; 0x248 <lcd_wr_char+0x1a>
 24c:	00 c0       	rjmp	.+0      	; 0x24e <lcd_wr_char+0x20>
 24e:	00 00       	nop
	_delay_ms(5);
	cbit(lcd_port,EN);
 250:	42 98       	cbi	0x08, 2	; 8

	letter = letter & 0x0F;
	letter = letter<<4;
	lcd_port &= 0x0F;
 252:	98 b1       	in	r25, 0x08	; 8
 254:	9f 70       	andi	r25, 0x0F	; 15
 256:	98 b9       	out	0x08, r25	; 8
	lcd_port |= letter;
 258:	98 b1       	in	r25, 0x08	; 8
	sbit(lcd_port,EN);
	_delay_ms(5);
	cbit(lcd_port,EN);

	letter = letter & 0x0F;
	letter = letter<<4;
 25a:	82 95       	swap	r24
 25c:	80 7f       	andi	r24, 0xF0	; 240
	lcd_port &= 0x0F;
	lcd_port |= letter;
 25e:	89 2b       	or	r24, r25
 260:	88 b9       	out	0x08, r24	; 8
	sbit(lcd_port,RS);
 262:	40 9a       	sbi	0x08, 0	; 8
	cbit(lcd_port,RW);
 264:	41 98       	cbi	0x08, 1	; 8
	sbit(lcd_port,EN);
 266:	42 9a       	sbi	0x08, 2	; 8
 268:	81 ee       	ldi	r24, 0xE1	; 225
 26a:	94 e0       	ldi	r25, 0x04	; 4
 26c:	01 97       	sbiw	r24, 0x01	; 1
 26e:	f1 f7       	brne	.-4      	; 0x26c <lcd_wr_char+0x3e>
 270:	00 c0       	rjmp	.+0      	; 0x272 <lcd_wr_char+0x44>
 272:	00 00       	nop
	_delay_ms(5);
	cbit(lcd_port,EN);
 274:	42 98       	cbi	0x08, 2	; 8
}
 276:	08 95       	ret

00000278 <lcd_home>:


void lcd_home()
{
	lcd_wr_command(0x80);
 278:	80 e8       	ldi	r24, 0x80	; 128
 27a:	0e 94 dc 00 	call	0x1b8	; 0x1b8 <lcd_wr_command>
}
 27e:	08 95       	ret

00000280 <lcd_string>:


/*****Function to Print String on LCD*****/
void lcd_string(char *str)
{
 280:	cf 93       	push	r28
 282:	df 93       	push	r29
 284:	ec 01       	movw	r28, r24
	while(*str != '\0')
 286:	88 81       	ld	r24, Y
 288:	88 23       	and	r24, r24
 28a:	31 f0       	breq	.+12     	; 0x298 <lcd_string+0x18>
	lcd_wr_command(0x80);
}


/*****Function to Print String on LCD*****/
void lcd_string(char *str)
 28c:	21 96       	adiw	r28, 0x01	; 1
{
	while(*str != '\0')
	{
		lcd_wr_char(*str);
 28e:	0e 94 17 01 	call	0x22e	; 0x22e <lcd_wr_char>


/*****Function to Print String on LCD*****/
void lcd_string(char *str)
{
	while(*str != '\0')
 292:	89 91       	ld	r24, Y+
 294:	88 23       	and	r24, r24
 296:	d9 f7       	brne	.-10     	; 0x28e <lcd_string+0xe>
	{
		lcd_wr_char(*str);
		str++;
	}
}
 298:	df 91       	pop	r29
 29a:	cf 91       	pop	r28
 29c:	08 95       	ret

0000029e <lcd_cursor>:

/*** Position the LCD cursor at "row", "column". ***/

void lcd_cursor (char row, char column)
{
	switch (row) {
 29e:	82 30       	cpi	r24, 0x02	; 2
 2a0:	79 f0       	breq	.+30     	; 0x2c0 <lcd_cursor+0x22>
 2a2:	83 30       	cpi	r24, 0x03	; 3
 2a4:	18 f4       	brcc	.+6      	; 0x2ac <lcd_cursor+0xe>
 2a6:	81 30       	cpi	r24, 0x01	; 1
 2a8:	c9 f4       	brne	.+50     	; 0x2dc <lcd_cursor+0x3e>
 2aa:	05 c0       	rjmp	.+10     	; 0x2b6 <lcd_cursor+0x18>
 2ac:	83 30       	cpi	r24, 0x03	; 3
 2ae:	69 f0       	breq	.+26     	; 0x2ca <lcd_cursor+0x2c>
 2b0:	84 30       	cpi	r24, 0x04	; 4
 2b2:	a1 f4       	brne	.+40     	; 0x2dc <lcd_cursor+0x3e>
 2b4:	0f c0       	rjmp	.+30     	; 0x2d4 <lcd_cursor+0x36>
		case 1: lcd_wr_command (0x80 + column - 1); break;
 2b6:	86 2f       	mov	r24, r22
 2b8:	81 58       	subi	r24, 0x81	; 129
 2ba:	0e 94 dc 00 	call	0x1b8	; 0x1b8 <lcd_wr_command>
 2be:	08 95       	ret
		case 2: lcd_wr_command (0xc0 + column - 1); break;
 2c0:	86 2f       	mov	r24, r22
 2c2:	81 54       	subi	r24, 0x41	; 65
 2c4:	0e 94 dc 00 	call	0x1b8	; 0x1b8 <lcd_wr_command>
 2c8:	08 95       	ret
		case 3: lcd_wr_command (0x94 + column - 1); break;
 2ca:	86 2f       	mov	r24, r22
 2cc:	8d 56       	subi	r24, 0x6D	; 109
 2ce:	0e 94 dc 00 	call	0x1b8	; 0x1b8 <lcd_wr_command>
 2d2:	08 95       	ret
		case 4: lcd_wr_command (0xd4 + column - 1); break;
 2d4:	86 2f       	mov	r24, r22
 2d6:	8d 52       	subi	r24, 0x2D	; 45
 2d8:	0e 94 dc 00 	call	0x1b8	; 0x1b8 <lcd_wr_command>
 2dc:	08 95       	ret

000002de <lcd_print>:
	}
}

/***** Function To Print Any input value upto the desired digit on LCD *****/
void lcd_print (char row, char coloumn, unsigned int value, int digits)
{
 2de:	0f 93       	push	r16
 2e0:	1f 93       	push	r17
 2e2:	cf 93       	push	r28
 2e4:	df 93       	push	r29
 2e6:	8a 01       	movw	r16, r20
 2e8:	e9 01       	movw	r28, r18
	unsigned char flag=0;
	if(row==0||coloumn==0)
 2ea:	88 23       	and	r24, r24
 2ec:	11 f0       	breq	.+4      	; 0x2f2 <lcd_print+0x14>
 2ee:	66 23       	and	r22, r22
 2f0:	19 f4       	brne	.+6      	; 0x2f8 <lcd_print+0x1a>
	{
		lcd_home();
 2f2:	0e 94 3c 01 	call	0x278	; 0x278 <lcd_home>
 2f6:	02 c0       	rjmp	.+4      	; 0x2fc <lcd_print+0x1e>
	}
	else
	{
		lcd_cursor(row,coloumn);
 2f8:	0e 94 4f 01 	call	0x29e	; 0x29e <lcd_cursor>
	}
	if(digits==5 || flag==1)
 2fc:	c5 30       	cpi	r28, 0x05	; 5
 2fe:	d1 05       	cpc	r29, r1
 300:	71 f4       	brne	.+28     	; 0x31e <lcd_print+0x40>
	{
		million=value/10000+48;
 302:	c8 01       	movw	r24, r16
 304:	60 e1       	ldi	r22, 0x10	; 16
 306:	77 e2       	ldi	r23, 0x27	; 39
 308:	0e 94 b9 05 	call	0xb72	; 0xb72 <__udivmodhi4>
 30c:	cb 01       	movw	r24, r22
 30e:	c0 96       	adiw	r24, 0x30	; 48
 310:	90 93 1f 02 	sts	0x021F, r25
 314:	80 93 1e 02 	sts	0x021E, r24
		lcd_wr_char(million);
 318:	0e 94 17 01 	call	0x22e	; 0x22e <lcd_wr_char>
 31c:	03 c0       	rjmp	.+6      	; 0x324 <lcd_print+0x46>
		flag=1;
	}
	if(digits==4 || flag==1)
 31e:	c4 30       	cpi	r28, 0x04	; 4
 320:	d1 05       	cpc	r29, r1
 322:	b9 f4       	brne	.+46     	; 0x352 <lcd_print+0x74>
	{
		temp = value/1000;
 324:	c8 01       	movw	r24, r16
 326:	68 ee       	ldi	r22, 0xE8	; 232
 328:	73 e0       	ldi	r23, 0x03	; 3
 32a:	0e 94 b9 05 	call	0xb72	; 0xb72 <__udivmodhi4>
 32e:	cb 01       	movw	r24, r22
 330:	70 93 21 02 	sts	0x0221, r23
 334:	60 93 20 02 	sts	0x0220, r22
		thousand = temp%10 + 48;
 338:	6a e0       	ldi	r22, 0x0A	; 10
 33a:	70 e0       	ldi	r23, 0x00	; 0
 33c:	0e 94 b9 05 	call	0xb72	; 0xb72 <__udivmodhi4>
 340:	c0 96       	adiw	r24, 0x30	; 48
 342:	90 93 2d 02 	sts	0x022D, r25
 346:	80 93 2c 02 	sts	0x022C, r24
		lcd_wr_char(thousand);
 34a:	0e 94 17 01 	call	0x22e	; 0x22e <lcd_wr_char>
		flag=1;
 34e:	81 e0       	ldi	r24, 0x01	; 1
 350:	01 c0       	rjmp	.+2      	; 0x354 <lcd_print+0x76>
}

/***** Function To Print Any input value upto the desired digit on LCD *****/
void lcd_print (char row, char coloumn, unsigned int value, int digits)
{
	unsigned char flag=0;
 352:	80 e0       	ldi	r24, 0x00	; 0
		temp = value/1000;
		thousand = temp%10 + 48;
		lcd_wr_char(thousand);
		flag=1;
	}
	if(digits==3 || flag==1)
 354:	c3 30       	cpi	r28, 0x03	; 3
 356:	d1 05       	cpc	r29, r1
 358:	11 f0       	breq	.+4      	; 0x35e <lcd_print+0x80>
 35a:	81 30       	cpi	r24, 0x01	; 1
 35c:	b1 f4       	brne	.+44     	; 0x38a <lcd_print+0xac>
	{
		temp = value/100;
 35e:	c8 01       	movw	r24, r16
 360:	64 e6       	ldi	r22, 0x64	; 100
 362:	70 e0       	ldi	r23, 0x00	; 0
 364:	0e 94 b9 05 	call	0xb72	; 0xb72 <__udivmodhi4>
 368:	cb 01       	movw	r24, r22
 36a:	70 93 21 02 	sts	0x0221, r23
 36e:	60 93 20 02 	sts	0x0220, r22
		hundred = temp%10 + 48;
 372:	6a e0       	ldi	r22, 0x0A	; 10
 374:	70 e0       	ldi	r23, 0x00	; 0
 376:	0e 94 b9 05 	call	0xb72	; 0xb72 <__udivmodhi4>
 37a:	c0 96       	adiw	r24, 0x30	; 48
 37c:	90 93 29 02 	sts	0x0229, r25
 380:	80 93 28 02 	sts	0x0228, r24
		lcd_wr_char(hundred);
 384:	0e 94 17 01 	call	0x22e	; 0x22e <lcd_wr_char>
		flag=1;
 388:	81 e0       	ldi	r24, 0x01	; 1
	}
	if(digits==2 || flag==1)
 38a:	c2 30       	cpi	r28, 0x02	; 2
 38c:	d1 05       	cpc	r29, r1
 38e:	11 f0       	breq	.+4      	; 0x394 <lcd_print+0xb6>
 390:	81 30       	cpi	r24, 0x01	; 1
 392:	b1 f4       	brne	.+44     	; 0x3c0 <lcd_print+0xe2>
	{
		temp = value/10;
 394:	2a e0       	ldi	r18, 0x0A	; 10
 396:	30 e0       	ldi	r19, 0x00	; 0
 398:	c8 01       	movw	r24, r16
 39a:	b9 01       	movw	r22, r18
 39c:	0e 94 b9 05 	call	0xb72	; 0xb72 <__udivmodhi4>
 3a0:	cb 01       	movw	r24, r22
 3a2:	70 93 21 02 	sts	0x0221, r23
 3a6:	60 93 20 02 	sts	0x0220, r22
		tens = temp%10 + 48;
 3aa:	b9 01       	movw	r22, r18
 3ac:	0e 94 b9 05 	call	0xb72	; 0xb72 <__udivmodhi4>
 3b0:	c0 96       	adiw	r24, 0x30	; 48
 3b2:	90 93 26 02 	sts	0x0226, r25
 3b6:	80 93 25 02 	sts	0x0225, r24
		lcd_wr_char(tens);
 3ba:	0e 94 17 01 	call	0x22e	; 0x22e <lcd_wr_char>
		flag=1;
 3be:	81 e0       	ldi	r24, 0x01	; 1
	}
	if(digits==1 || flag==1)
 3c0:	c1 30       	cpi	r28, 0x01	; 1
 3c2:	d1 05       	cpc	r29, r1
 3c4:	11 f0       	breq	.+4      	; 0x3ca <lcd_print+0xec>
 3c6:	81 30       	cpi	r24, 0x01	; 1
 3c8:	61 f4       	brne	.+24     	; 0x3e2 <lcd_print+0x104>
	{
		unit = value%10 + 48;
 3ca:	c8 01       	movw	r24, r16
 3cc:	6a e0       	ldi	r22, 0x0A	; 10
 3ce:	70 e0       	ldi	r23, 0x00	; 0
 3d0:	0e 94 b9 05 	call	0xb72	; 0xb72 <__udivmodhi4>
 3d4:	c0 96       	adiw	r24, 0x30	; 48
 3d6:	90 93 2b 02 	sts	0x022B, r25
 3da:	80 93 2a 02 	sts	0x022A, r24
		lcd_wr_char(unit);
 3de:	0e 94 17 01 	call	0x22e	; 0x22e <lcd_wr_char>
	}
	if(digits>5)
 3e2:	c6 30       	cpi	r28, 0x06	; 6
 3e4:	d1 05       	cpc	r29, r1
 3e6:	1c f0       	brlt	.+6      	; 0x3ee <lcd_print+0x110>
	{
		lcd_wr_char('E');
 3e8:	85 e4       	ldi	r24, 0x45	; 69
 3ea:	0e 94 17 01 	call	0x22e	; 0x22e <lcd_wr_char>
	}
	
}
 3ee:	df 91       	pop	r29
 3f0:	cf 91       	pop	r28
 3f2:	1f 91       	pop	r17
 3f4:	0f 91       	pop	r16
 3f6:	08 95       	ret

000003f8 <lcd_port_config>:
unsigned char Center_white_line = 0;
unsigned char Right_white_line = 0;

void lcd_port_config (void)
{
	DDRC = DDRC | 0xF7; //all the LCD pin's direction set as output
 3f8:	87 b1       	in	r24, 0x07	; 7
 3fa:	87 6f       	ori	r24, 0xF7	; 247
 3fc:	87 b9       	out	0x07, r24	; 7
	PORTC = PORTC & 0x80; // all the LCD pins are set to logic 0 except PORTC 7
 3fe:	88 b1       	in	r24, 0x08	; 8
 400:	80 78       	andi	r24, 0x80	; 128
 402:	88 b9       	out	0x08, r24	; 8
}
 404:	08 95       	ret

00000406 <adc_pin_config>:

//ADC pin configuration
void adc_pin_config (void)
{
	DDRF = 0x00;
 406:	10 ba       	out	0x10, r1	; 16
	PORTF = 0x00;
 408:	11 ba       	out	0x11, r1	; 17
	DDRK = 0x00;
 40a:	10 92 07 01 	sts	0x0107, r1
	PORTK = 0x00;
 40e:	10 92 08 01 	sts	0x0108, r1
}
 412:	08 95       	ret

00000414 <timer5_init>:
// Prescale:256
// PWM 8bit fast, TOP=0x00FF
// Timer Frequency:225.000Hz
void timer5_init()
{
	TCCR5B = 0x00;	//Stop
 414:	e1 e2       	ldi	r30, 0x21	; 33
 416:	f1 e0       	ldi	r31, 0x01	; 1
 418:	10 82       	st	Z, r1
	TCNT5H = 0xFF;	//Counter higher 8-bit value to which OCR5xH value is compared with
 41a:	8f ef       	ldi	r24, 0xFF	; 255
 41c:	80 93 25 01 	sts	0x0125, r24
	TCNT5L = 0x01;	//Counter lower 8-bit value to which OCR5xH value is compared with
 420:	91 e0       	ldi	r25, 0x01	; 1
 422:	90 93 24 01 	sts	0x0124, r25
	OCR5AH = 0x00;	//Output compare register high value for Left Motor
 426:	10 92 29 01 	sts	0x0129, r1
	OCR5AL = 0xFF;	//Output compare register low value for Left Motor
 42a:	80 93 28 01 	sts	0x0128, r24
	OCR5BH = 0x00;	//Output compare register high value for Right Motor
 42e:	10 92 2b 01 	sts	0x012B, r1
	OCR5BL = 0xFF;	//Output compare register low value for Right Motor
 432:	80 93 2a 01 	sts	0x012A, r24
	OCR5CH = 0x00;	//Output compare register high value for Motor C1
 436:	10 92 2d 01 	sts	0x012D, r1
	OCR5CL = 0xFF;	//Output compare register low value for Motor C1
 43a:	80 93 2c 01 	sts	0x012C, r24
	TCCR5A = 0xA9;	/*{COM5A1=1, COM5A0=0; COM5B1=1, COM5B0=0; COM5C1=1 COM5C0=0}
 43e:	89 ea       	ldi	r24, 0xA9	; 169
 440:	80 93 20 01 	sts	0x0120, r24
 					  For Overriding normal port functionality to OCRnA outputs.
				  	  {WGM51=0, WGM50=1} Along With WGM52 in TCCR5B for Selecting FAST PWM 8-bit Mode*/
	
	TCCR5B = 0x0B;	//WGM12=1; CS12=0, CS11=1, CS10=1 (Prescaler=64)
 444:	8b e0       	ldi	r24, 0x0B	; 11
 446:	80 83       	st	Z, r24
}
 448:	08 95       	ret

0000044a <adc_init>:

void adc_init()
{
	ADCSRA = 0x00;
 44a:	ea e7       	ldi	r30, 0x7A	; 122
 44c:	f0 e0       	ldi	r31, 0x00	; 0
 44e:	10 82       	st	Z, r1
	ADCSRB = 0x00;		//MUX5 = 0
 450:	10 92 7b 00 	sts	0x007B, r1
	ADMUX = 0x20;		//Vref=5V external --- ADLAR=1 --- MUX4:0 = 0000
 454:	80 e2       	ldi	r24, 0x20	; 32
 456:	80 93 7c 00 	sts	0x007C, r24
	ACSR = 0x80;
 45a:	80 e8       	ldi	r24, 0x80	; 128
 45c:	80 bf       	out	0x30, r24	; 48
	ADCSRA = 0x86;		//ADEN=1 --- ADIE=1 --- ADPS2:0 = 1 1 0
 45e:	86 e8       	ldi	r24, 0x86	; 134
 460:	80 83       	st	Z, r24
}
 462:	08 95       	ret

00000464 <ADC_Conversion>:

//Function For ADC Conversion
unsigned char ADC_Conversion(unsigned char Ch)
{
	unsigned char a;
	if(Ch>7)
 464:	88 30       	cpi	r24, 0x08	; 8
 466:	18 f0       	brcs	.+6      	; 0x46e <ADC_Conversion+0xa>
	{
		ADCSRB = 0x08;
 468:	98 e0       	ldi	r25, 0x08	; 8
 46a:	90 93 7b 00 	sts	0x007B, r25
	}
	Ch = Ch & 0x07;
 46e:	87 70       	andi	r24, 0x07	; 7
	ADMUX= 0x20| Ch;
 470:	80 62       	ori	r24, 0x20	; 32
 472:	80 93 7c 00 	sts	0x007C, r24
	ADCSRA = ADCSRA | 0x40;		//Set start conversion bit
 476:	ea e7       	ldi	r30, 0x7A	; 122
 478:	f0 e0       	ldi	r31, 0x00	; 0
 47a:	80 81       	ld	r24, Z
 47c:	80 64       	ori	r24, 0x40	; 64
 47e:	80 83       	st	Z, r24
	while((ADCSRA&0x10)==0);	//Wait for conversion to complete
 480:	80 81       	ld	r24, Z
 482:	84 ff       	sbrs	r24, 4
 484:	fd cf       	rjmp	.-6      	; 0x480 <ADC_Conversion+0x1c>
	a=ADCH;
 486:	80 91 79 00 	lds	r24, 0x0079
	ADCSRA = ADCSRA|0x10; //clear ADIF (ADC Interrupt Flag) by writing 1 to it
 48a:	ea e7       	ldi	r30, 0x7A	; 122
 48c:	f0 e0       	ldi	r31, 0x00	; 0
 48e:	90 81       	ld	r25, Z
 490:	90 61       	ori	r25, 0x10	; 16
 492:	90 83       	st	Z, r25
	ADCSRB = 0x00;
 494:	10 92 7b 00 	sts	0x007B, r1
	return a;
}
 498:	08 95       	ret

0000049a <print_sensor>:

//Function To Print Sesor Values At Desired Row And Coloumn Location on LCD
void print_sensor(char row, char coloumn,unsigned char channel)
{
 49a:	cf 93       	push	r28
 49c:	df 93       	push	r29
 49e:	d8 2f       	mov	r29, r24
 4a0:	c6 2f       	mov	r28, r22
 4a2:	84 2f       	mov	r24, r20
	ADC_Value = ADC_Conversion(channel);
 4a4:	0e 94 32 02 	call	0x464	; 0x464 <ADC_Conversion>
 4a8:	48 2f       	mov	r20, r24
 4aa:	80 93 22 02 	sts	0x0222, r24
	lcd_print(row, coloumn, ADC_Value, 3);
 4ae:	8d 2f       	mov	r24, r29
 4b0:	6c 2f       	mov	r22, r28
 4b2:	50 e0       	ldi	r21, 0x00	; 0
 4b4:	23 e0       	ldi	r18, 0x03	; 3
 4b6:	30 e0       	ldi	r19, 0x00	; 0
 4b8:	0e 94 6f 01 	call	0x2de	; 0x2de <lcd_print>
}
 4bc:	df 91       	pop	r29
 4be:	cf 91       	pop	r28
 4c0:	08 95       	ret

000004c2 <velocity>:

//Function for velocity control
void velocity (unsigned char left_motor, unsigned char right_motor)
{
	OCR5AL = (unsigned char)left_motor;
 4c2:	80 93 28 01 	sts	0x0128, r24
	OCR5BL = (unsigned char)right_motor;
 4c6:	60 93 2a 01 	sts	0x012A, r22
}
 4ca:	08 95       	ret

000004cc <buzzer_pin_config>:
// ***************************************************************************************************

unsigned char data; //to store received data from UDR1
void buzzer_pin_config (void)
{
	DDRC = DDRC | 0x08;		//Setting PORTC 3 as outpt
 4cc:	3b 9a       	sbi	0x07, 3	; 7
	PORTC = PORTC & 0xF7;		//Setting PORTC 3 logic low to turnoff buzzer
 4ce:	43 98       	cbi	0x08, 3	; 8
}
 4d0:	08 95       	ret

000004d2 <motion_pin_config>:

void motion_pin_config (void)
{
	DDRA = DDRA | 0x0F;
 4d2:	81 b1       	in	r24, 0x01	; 1
 4d4:	8f 60       	ori	r24, 0x0F	; 15
 4d6:	81 b9       	out	0x01, r24	; 1
	PORTA = PORTA & 0xF0;
 4d8:	82 b1       	in	r24, 0x02	; 2
 4da:	80 7f       	andi	r24, 0xF0	; 240
 4dc:	82 b9       	out	0x02, r24	; 2
	DDRL = DDRL | 0x18;   //Setting PL3 and PL4 pins as output for PWM generation
 4de:	ea e0       	ldi	r30, 0x0A	; 10
 4e0:	f1 e0       	ldi	r31, 0x01	; 1
 4e2:	80 81       	ld	r24, Z
 4e4:	88 61       	ori	r24, 0x18	; 24
 4e6:	80 83       	st	Z, r24
	PORTL = PORTL | 0x18; //PL3 and PL4 pins are for velocity control using PWM.
 4e8:	eb e0       	ldi	r30, 0x0B	; 11
 4ea:	f1 e0       	ldi	r31, 0x01	; 1
 4ec:	80 81       	ld	r24, Z
 4ee:	88 61       	ori	r24, 0x18	; 24
 4f0:	80 83       	st	Z, r24
}
 4f2:	08 95       	ret

000004f4 <motion_set>:
void motion_set (unsigned char Direction)
{
	unsigned char PortARestore = 0;

	Direction &= 0x0F; 		// removing upper nibbel for the protection
	PortARestore = PORTA; 		// reading the PORTA original status
 4f4:	92 b1       	in	r25, 0x02	; 2
	PortARestore &= 0xF0; 		// making lower direction nibbel to 0
 4f6:	90 7f       	andi	r25, 0xF0	; 240

void motion_set (unsigned char Direction)
{
	unsigned char PortARestore = 0;

	Direction &= 0x0F; 		// removing upper nibbel for the protection
 4f8:	8f 70       	andi	r24, 0x0F	; 15
	PortARestore = PORTA; 		// reading the PORTA original status
	PortARestore &= 0xF0; 		// making lower direction nibbel to 0
	PortARestore |= Direction; // adding lower nibbel for forward command and restoring the PORTA status
 4fa:	98 2b       	or	r25, r24
	PORTA = PortARestore; 		// executing the command
 4fc:	92 b9       	out	0x02, r25	; 2
}
 4fe:	08 95       	ret

00000500 <forward>:

void forward (void)
{
	motion_set (0x06);
 500:	86 e0       	ldi	r24, 0x06	; 6
 502:	0e 94 7a 02 	call	0x4f4	; 0x4f4 <motion_set>
}
 506:	08 95       	ret

00000508 <stop>:

void stop (void)
{
	motion_set (0x00);
 508:	80 e0       	ldi	r24, 0x00	; 0
 50a:	0e 94 7a 02 	call	0x4f4	; 0x4f4 <motion_set>
}
 50e:	08 95       	ret

00000510 <back>:

void back (void) //both wheels backward
{
	motion_set(0x09);
 510:	89 e0       	ldi	r24, 0x09	; 9
 512:	0e 94 7a 02 	call	0x4f4	; 0x4f4 <motion_set>
}
 516:	08 95       	ret

00000518 <port_init>:
}
*/
//Function to initialize ports
void port_init()
{
	lcd_port_config();
 518:	0e 94 fc 01 	call	0x3f8	; 0x3f8 <lcd_port_config>
	adc_pin_config();
 51c:	0e 94 03 02 	call	0x406	; 0x406 <adc_pin_config>
	motion_pin_config();
 520:	0e 94 69 02 	call	0x4d2	; 0x4d2 <motion_pin_config>
	buzzer_pin_config();
 524:	0e 94 66 02 	call	0x4cc	; 0x4cc <buzzer_pin_config>
}
 528:	08 95       	ret

0000052a <buzzer_on>:

void buzzer_on (void)
{
	unsigned char port_restore = 0;
	port_restore = PINC;
 52a:	86 b1       	in	r24, 0x06	; 6
	port_restore = port_restore | 0x08;
 52c:	88 60       	ori	r24, 0x08	; 8
	PORTC = port_restore;
 52e:	88 b9       	out	0x08, r24	; 8
}
 530:	08 95       	ret

00000532 <buzzer_off>:

void buzzer_off (void)
{
	unsigned char port_restore = 0;
	port_restore = PINC;
 532:	86 b1       	in	r24, 0x06	; 6
	port_restore = port_restore & 0xF7;
 534:	87 7f       	andi	r24, 0xF7	; 247
	PORTC = port_restore;
 536:	88 b9       	out	0x08, r24	; 8
}
 538:	08 95       	ret

0000053a <uart0_init>:
// actual baud rate:9600 (error 0.0%)
// char size: 8 bit
// parity: Disabled
void uart0_init(void)
{
	UCSR0B = 0x00; //disable while setting baud rate
 53a:	e1 ec       	ldi	r30, 0xC1	; 193
 53c:	f0 e0       	ldi	r31, 0x00	; 0
 53e:	10 82       	st	Z, r1
	UCSR0A = 0x00;
 540:	10 92 c0 00 	sts	0x00C0, r1
	UCSR0C = 0x06;
 544:	86 e0       	ldi	r24, 0x06	; 6
 546:	80 93 c2 00 	sts	0x00C2, r24
	UBRR0L = 0x5F; //set baud rate lo
 54a:	8f e5       	ldi	r24, 0x5F	; 95
 54c:	80 93 c4 00 	sts	0x00C4, r24
	UBRR0H = 0x00; //set baud rate hi
 550:	10 92 c5 00 	sts	0x00C5, r1
	UCSR0B = 0x98;
 554:	88 e9       	ldi	r24, 0x98	; 152
 556:	80 83       	st	Z, r24
}
 558:	08 95       	ret

0000055a <pid_control>:

void pid_control (data)
{
 55a:	1f 93       	push	r17
 55c:	cf 93       	push	r28
 55e:	df 93       	push	r29
		while(data != 0x20)
 560:	80 32       	cpi	r24, 0x20	; 32
 562:	91 05       	cpc	r25, r1
 564:	31 f1       	breq	.+76     	; 0x5b2 <pid_control+0x58>
		{
			data = UDR0;	//Echo back to zigbee
 566:	c6 ec       	ldi	r28, 0xC6	; 198
 568:	d0 e0       	ldi	r29, 0x00	; 0
 56a:	18 81       	ld	r17, Y
			UDR0 = data;
 56c:	18 83       	st	Y, r17
			
			Left_white_line = ADC_Conversion(3);	//Getting data of Left WL Sensor
 56e:	83 e0       	ldi	r24, 0x03	; 3
 570:	0e 94 32 02 	call	0x464	; 0x464 <ADC_Conversion>
 574:	80 93 1c 02 	sts	0x021C, r24
			Center_white_line = ADC_Conversion(2);	//Getting data of Center WL Sensor
 578:	82 e0       	ldi	r24, 0x02	; 2
 57a:	0e 94 32 02 	call	0x464	; 0x464 <ADC_Conversion>
 57e:	80 93 1b 02 	sts	0x021B, r24
			Right_white_line = ADC_Conversion(1);	//Getting data of Right WL Sensor
 582:	81 e0       	ldi	r24, 0x01	; 1
 584:	0e 94 32 02 	call	0x464	; 0x464 <ADC_Conversion>
 588:	80 93 1a 02 	sts	0x021A, r24

			flag=0;
 58c:	10 92 1d 02 	sts	0x021D, r1

			print_sensor(1,1,3);	//Prints value of White Line Sensor1
 590:	81 e0       	ldi	r24, 0x01	; 1
 592:	61 e0       	ldi	r22, 0x01	; 1
 594:	43 e0       	ldi	r20, 0x03	; 3
 596:	0e 94 4d 02 	call	0x49a	; 0x49a <print_sensor>
			print_sensor(1,5,2);	//Prints Value of White Line Sensor2
 59a:	81 e0       	ldi	r24, 0x01	; 1
 59c:	65 e0       	ldi	r22, 0x05	; 5
 59e:	42 e0       	ldi	r20, 0x02	; 2
 5a0:	0e 94 4d 02 	call	0x49a	; 0x49a <print_sensor>
			print_sensor(1,9,1);	//Prints Value of White Line Sensor3
 5a4:	81 e0       	ldi	r24, 0x01	; 1
 5a6:	69 e0       	ldi	r22, 0x09	; 9
 5a8:	41 e0       	ldi	r20, 0x01	; 1
 5aa:	0e 94 4d 02 	call	0x49a	; 0x49a <print_sensor>
	UCSR0B = 0x98;
}

void pid_control (data)
{
		while(data != 0x20)
 5ae:	10 32       	cpi	r17, 0x20	; 32
 5b0:	e1 f6       	brne	.-72     	; 0x56a <pid_control+0x10>

			print_sensor(1,1,3);	//Prints value of White Line Sensor1
			print_sensor(1,5,2);	//Prints Value of White Line Sensor2
			print_sensor(1,9,1);	//Prints Value of White Line Sensor3
		}
}
 5b2:	df 91       	pop	r29
 5b4:	cf 91       	pop	r28
 5b6:	1f 91       	pop	r17
 5b8:	08 95       	ret

000005ba <back_white_line>:

void back_white_line (data)
{
 5ba:	1f 93       	push	r17
 5bc:	cf 93       	push	r28
 5be:	df 93       	push	r29
	while(data != 0x20) {
 5c0:	80 32       	cpi	r24, 0x20	; 32
 5c2:	91 05       	cpc	r25, r1
 5c4:	09 f4       	brne	.+2      	; 0x5c8 <back_white_line+0xe>
 5c6:	68 c0       	rjmp	.+208    	; 0x698 <back_white_line+0xde>
			data = UDR0; 				//making copy of data from UDR0 in 'data' variable
 5c8:	c6 ec       	ldi	r28, 0xC6	; 198
 5ca:	d0 e0       	ldi	r29, 0x00	; 0
 5cc:	18 81       	ld	r17, Y

			UDR0 = data;
 5ce:	18 83       	st	Y, r17
		Left_white_line = ADC_Conversion(3);	//Getting data of Left WL Sensor
 5d0:	83 e0       	ldi	r24, 0x03	; 3
 5d2:	0e 94 32 02 	call	0x464	; 0x464 <ADC_Conversion>
 5d6:	80 93 1c 02 	sts	0x021C, r24
		Center_white_line = ADC_Conversion(2);	//Getting data of Center WL Sensor
 5da:	82 e0       	ldi	r24, 0x02	; 2
 5dc:	0e 94 32 02 	call	0x464	; 0x464 <ADC_Conversion>
 5e0:	80 93 1b 02 	sts	0x021B, r24
		Right_white_line = ADC_Conversion(1);	//Getting data of Right WL Sensor
 5e4:	81 e0       	ldi	r24, 0x01	; 1
 5e6:	0e 94 32 02 	call	0x464	; 0x464 <ADC_Conversion>
 5ea:	80 93 1a 02 	sts	0x021A, r24

		flag=0;
 5ee:	10 92 1d 02 	sts	0x021D, r1

		print_sensor(1,1,3);	//Prints value of White Line Sensor1
 5f2:	81 e0       	ldi	r24, 0x01	; 1
 5f4:	61 e0       	ldi	r22, 0x01	; 1
 5f6:	43 e0       	ldi	r20, 0x03	; 3
 5f8:	0e 94 4d 02 	call	0x49a	; 0x49a <print_sensor>
		print_sensor(1,5,2);	//Prints Value of White Line Sensor2
 5fc:	81 e0       	ldi	r24, 0x01	; 1
 5fe:	65 e0       	ldi	r22, 0x05	; 5
 600:	42 e0       	ldi	r20, 0x02	; 2
 602:	0e 94 4d 02 	call	0x49a	; 0x49a <print_sensor>
		print_sensor(1,9,1);	//Prints Value of White Line Sensor3
 606:	81 e0       	ldi	r24, 0x01	; 1
 608:	69 e0       	ldi	r22, 0x09	; 9
 60a:	41 e0       	ldi	r20, 0x01	; 1
 60c:	0e 94 4d 02 	call	0x49a	; 0x49a <print_sensor>

		if(Center_white_line<0x28)	//40
 610:	80 91 1b 02 	lds	r24, 0x021B
 614:	88 32       	cpi	r24, 0x28	; 40
 616:	48 f4       	brcc	.+18     	; 0x62a <back_white_line+0x70>
		{
			flag=1;
 618:	81 e0       	ldi	r24, 0x01	; 1
 61a:	80 93 1d 02 	sts	0x021D, r24
			back();
 61e:	0e 94 88 02 	call	0x510	; 0x510 <back>
			velocity(150,150);
 622:	86 e9       	ldi	r24, 0x96	; 150
 624:	66 e9       	ldi	r22, 0x96	; 150
 626:	0e 94 61 02 	call	0x4c2	; 0x4c2 <velocity>
		}

		if((Left_white_line>0x28) && (flag==0))
 62a:	80 91 1c 02 	lds	r24, 0x021C
 62e:	89 32       	cpi	r24, 0x29	; 41
 630:	68 f0       	brcs	.+26     	; 0x64c <back_white_line+0x92>
 632:	80 91 1d 02 	lds	r24, 0x021D
 636:	88 23       	and	r24, r24
 638:	49 f4       	brne	.+18     	; 0x64c <back_white_line+0x92>
		{
			flag=1;
 63a:	81 e0       	ldi	r24, 0x01	; 1
 63c:	80 93 1d 02 	sts	0x021D, r24
			back();
 640:	0e 94 88 02 	call	0x510	; 0x510 <back>
			velocity(50,130);
 644:	82 e3       	ldi	r24, 0x32	; 50
 646:	62 e8       	ldi	r22, 0x82	; 130
 648:	0e 94 61 02 	call	0x4c2	; 0x4c2 <velocity>
		}

		if((Right_white_line>0x28) && (flag==0))
 64c:	80 91 1a 02 	lds	r24, 0x021A
 650:	89 32       	cpi	r24, 0x29	; 41
 652:	68 f0       	brcs	.+26     	; 0x66e <back_white_line+0xb4>
 654:	80 91 1d 02 	lds	r24, 0x021D
 658:	88 23       	and	r24, r24
 65a:	49 f4       	brne	.+18     	; 0x66e <back_white_line+0xb4>
		{
			flag=1;
 65c:	81 e0       	ldi	r24, 0x01	; 1
 65e:	80 93 1d 02 	sts	0x021D, r24
			back();
 662:	0e 94 88 02 	call	0x510	; 0x510 <back>
			velocity(130,50);
 666:	82 e8       	ldi	r24, 0x82	; 130
 668:	62 e3       	ldi	r22, 0x32	; 50
 66a:	0e 94 61 02 	call	0x4c2	; 0x4c2 <velocity>
		}

		if(Center_white_line>0x28 && Left_white_line>0x28 && Right_white_line>0x28)
 66e:	80 91 1b 02 	lds	r24, 0x021B
 672:	89 32       	cpi	r24, 0x29	; 41
 674:	70 f0       	brcs	.+28     	; 0x692 <back_white_line+0xd8>
 676:	80 91 1c 02 	lds	r24, 0x021C
 67a:	89 32       	cpi	r24, 0x29	; 41
 67c:	50 f0       	brcs	.+20     	; 0x692 <back_white_line+0xd8>
 67e:	80 91 1a 02 	lds	r24, 0x021A
 682:	89 32       	cpi	r24, 0x29	; 41
 684:	30 f0       	brcs	.+12     	; 0x692 <back_white_line+0xd8>
		{
			forward();
 686:	0e 94 80 02 	call	0x500	; 0x500 <forward>
			velocity(0,0);
 68a:	80 e0       	ldi	r24, 0x00	; 0
 68c:	60 e0       	ldi	r22, 0x00	; 0
 68e:	0e 94 61 02 	call	0x4c2	; 0x4c2 <velocity>
		}
}

void back_white_line (data)
{
	while(data != 0x20) {
 692:	10 32       	cpi	r17, 0x20	; 32
 694:	09 f0       	breq	.+2      	; 0x698 <back_white_line+0xde>
 696:	9a cf       	rjmp	.-204    	; 0x5cc <back_white_line+0x12>
		{
			forward();
			velocity(0,0);
		}
	}	
}
 698:	df 91       	pop	r29
 69a:	cf 91       	pop	r28
 69c:	1f 91       	pop	r17
 69e:	08 95       	ret

000006a0 <init_devices>:


//Function To Initialize all The Devices
void init_devices()
{
	cli(); //Clears the global interrupts
 6a0:	f8 94       	cli
	port_init();  //Initializes all the ports
 6a2:	0e 94 8c 02 	call	0x518	; 0x518 <port_init>
	// uart0_init(); //Initailize UART1 for serial communiaction
	adc_init();
 6a6:	0e 94 25 02 	call	0x44a	; 0x44a <adc_init>
	lcd_init();
 6aa:	0e 94 01 01 	call	0x202	; 0x202 <lcd_init>
	timer5_init();
 6ae:	0e 94 0a 02 	call	0x414	; 0x414 <timer5_init>
	sei();   //Enables the global interrupts
 6b2:	78 94       	sei
}
 6b4:	08 95       	ret

000006b6 <main>:


//Main Function
int main(void)
{
	init_devices();
 6b6:	0e 94 50 03 	call	0x6a0	; 0x6a0 <init_devices>
	lcd_set_4bit();
 6ba:	0e 94 95 00 	call	0x12a	; 0x12a <lcd_set_4bit>
	lcd_init();
 6be:	0e 94 01 01 	call	0x202	; 0x202 <lcd_init>

		print_sensor(1,1,3);	//Prints value of White Line Sensor1
		print_sensor(1,5,2);	//Prints Value of White Line Sensor2
		print_sensor(1,9,1);	//Prints Value of White Line Sensor3
		
		Setpoint = 0x28;
 6c2:	0f 2e       	mov	r0, r31
 6c4:	f8 e2       	ldi	r31, 0x28	; 40
 6c6:	8f 2e       	mov	r8, r31
 6c8:	99 24       	eor	r9, r9
 6ca:	f0 2d       	mov	r31, r0
			_delay_ms(100);
		}
		else
		{
			forward();
			velocity(100-PID, 100+PID);
 6cc:	0f 2e       	mov	r0, r31
 6ce:	f2 e1       	ldi	r31, 0x12	; 18
 6d0:	6f 2e       	mov	r6, r31
 6d2:	f2 e0       	ldi	r31, 0x02	; 2
 6d4:	7f 2e       	mov	r7, r31
 6d6:	f0 2d       	mov	r31, r0
 6d8:	04 e6       	ldi	r16, 0x64	; 100
	init_devices();
	lcd_set_4bit();
	lcd_init();
	while(1)
	{
		Left_white_line = ADC_Conversion(3);	//Getting data of Left WL Sensor
 6da:	83 e0       	ldi	r24, 0x03	; 3
 6dc:	0e 94 32 02 	call	0x464	; 0x464 <ADC_Conversion>
 6e0:	80 93 1c 02 	sts	0x021C, r24
		Center_white_line = ADC_Conversion(2);	//Getting data of Center WL Sensor
 6e4:	82 e0       	ldi	r24, 0x02	; 2
 6e6:	0e 94 32 02 	call	0x464	; 0x464 <ADC_Conversion>
 6ea:	80 93 1b 02 	sts	0x021B, r24
		Right_white_line = ADC_Conversion(1);	//Getting data of Right WL Sensor
 6ee:	81 e0       	ldi	r24, 0x01	; 1
 6f0:	0e 94 32 02 	call	0x464	; 0x464 <ADC_Conversion>
 6f4:	80 93 1a 02 	sts	0x021A, r24

		flag=0;
 6f8:	10 92 1d 02 	sts	0x021D, r1

		print_sensor(1,1,3);	//Prints value of White Line Sensor1
 6fc:	81 e0       	ldi	r24, 0x01	; 1
 6fe:	61 e0       	ldi	r22, 0x01	; 1
 700:	43 e0       	ldi	r20, 0x03	; 3
 702:	0e 94 4d 02 	call	0x49a	; 0x49a <print_sensor>
		print_sensor(1,5,2);	//Prints Value of White Line Sensor2
 706:	81 e0       	ldi	r24, 0x01	; 1
 708:	65 e0       	ldi	r22, 0x05	; 5
 70a:	42 e0       	ldi	r20, 0x02	; 2
 70c:	0e 94 4d 02 	call	0x49a	; 0x49a <print_sensor>
		print_sensor(1,9,1);	//Prints Value of White Line Sensor3
 710:	81 e0       	ldi	r24, 0x01	; 1
 712:	69 e0       	ldi	r22, 0x09	; 9
 714:	41 e0       	ldi	r20, 0x01	; 1
 716:	0e 94 4d 02 	call	0x49a	; 0x49a <print_sensor>
		
		Setpoint = 0x28;
 71a:	90 92 19 02 	sts	0x0219, r9
 71e:	80 92 18 02 	sts	0x0218, r8
		
		if (Left_white_line < 0x28)
 722:	10 91 1c 02 	lds	r17, 0x021C
 726:	18 32       	cpi	r17, 0x28	; 40
 728:	28 f4       	brcc	.+10     	; 0x734 <main+0x7e>
		{
			Processedvar = Left_white_line;
 72a:	10 93 14 02 	sts	0x0214, r17
 72e:	10 92 15 02 	sts	0x0215, r1
 732:	06 c0       	rjmp	.+12     	; 0x740 <main+0x8a>
		}
		else
		{
			Processedvar = Right_white_line;
 734:	80 91 1a 02 	lds	r24, 0x021A
 738:	80 93 14 02 	sts	0x0214, r24
 73c:	10 92 15 02 	sts	0x0215, r1
		}
		error = Setpoint - Processedvar;
 740:	80 91 14 02 	lds	r24, 0x0214
 744:	90 91 15 02 	lds	r25, 0x0215
 748:	b4 01       	movw	r22, r8
 74a:	68 1b       	sub	r22, r24
 74c:	79 0b       	sbc	r23, r25
 74e:	70 93 17 02 	sts	0x0217, r23
 752:	60 93 16 02 	sts	0x0216, r22
		integral += error;
 756:	c0 91 10 02 	lds	r28, 0x0210
 75a:	d0 91 11 02 	lds	r29, 0x0211
 75e:	c6 0f       	add	r28, r22
 760:	d7 1f       	adc	r29, r23
 762:	d0 93 11 02 	sts	0x0211, r29
 766:	c0 93 10 02 	sts	0x0210, r28
		derivative = -lasterror+error;
 76a:	80 91 0c 02 	lds	r24, 0x020C
 76e:	90 91 0d 02 	lds	r25, 0x020D
 772:	5b 01       	movw	r10, r22
 774:	a8 1a       	sub	r10, r24
 776:	b9 0a       	sbc	r11, r25
 778:	b0 92 0f 02 	sts	0x020F, r11
 77c:	a0 92 0e 02 	sts	0x020E, r10
		lasterror = error;
 780:	70 93 0d 02 	sts	0x020D, r23
 784:	60 93 0c 02 	sts	0x020C, r22
		
		PID = kp * error + ki * integral + kd * derivative;
 788:	88 27       	eor	r24, r24
 78a:	77 fd       	sbrc	r23, 7
 78c:	80 95       	com	r24
 78e:	98 2f       	mov	r25, r24
 790:	0e 94 ca 04 	call	0x994	; 0x994 <__floatsisf>
 794:	20 91 08 02 	lds	r18, 0x0208
 798:	30 91 09 02 	lds	r19, 0x0209
 79c:	40 91 0a 02 	lds	r20, 0x020A
 7a0:	50 91 0b 02 	lds	r21, 0x020B
 7a4:	0e 94 56 05 	call	0xaac	; 0xaac <__mulsf3>
 7a8:	6b 01       	movw	r12, r22
 7aa:	7c 01       	movw	r14, r24
 7ac:	be 01       	movw	r22, r28
 7ae:	88 27       	eor	r24, r24
 7b0:	77 fd       	sbrc	r23, 7
 7b2:	80 95       	com	r24
 7b4:	98 2f       	mov	r25, r24
 7b6:	0e 94 ca 04 	call	0x994	; 0x994 <__floatsisf>
 7ba:	20 91 04 02 	lds	r18, 0x0204
 7be:	30 91 05 02 	lds	r19, 0x0205
 7c2:	40 91 06 02 	lds	r20, 0x0206
 7c6:	50 91 07 02 	lds	r21, 0x0207
 7ca:	0e 94 56 05 	call	0xaac	; 0xaac <__mulsf3>
 7ce:	9b 01       	movw	r18, r22
 7d0:	ac 01       	movw	r20, r24
 7d2:	c7 01       	movw	r24, r14
 7d4:	b6 01       	movw	r22, r12
 7d6:	0e 94 33 04 	call	0x866	; 0x866 <__addsf3>
 7da:	6b 01       	movw	r12, r22
 7dc:	7c 01       	movw	r14, r24
 7de:	b5 01       	movw	r22, r10
 7e0:	88 27       	eor	r24, r24
 7e2:	77 fd       	sbrc	r23, 7
 7e4:	80 95       	com	r24
 7e6:	98 2f       	mov	r25, r24
 7e8:	0e 94 ca 04 	call	0x994	; 0x994 <__floatsisf>
 7ec:	20 91 00 02 	lds	r18, 0x0200
 7f0:	30 91 01 02 	lds	r19, 0x0201
 7f4:	40 91 02 02 	lds	r20, 0x0202
 7f8:	50 91 03 02 	lds	r21, 0x0203
 7fc:	0e 94 56 05 	call	0xaac	; 0xaac <__mulsf3>
 800:	9b 01       	movw	r18, r22
 802:	ac 01       	movw	r20, r24
 804:	c7 01       	movw	r24, r14
 806:	b6 01       	movw	r22, r12
 808:	0e 94 33 04 	call	0x866	; 0x866 <__addsf3>
 80c:	0e 94 97 04 	call	0x92e	; 0x92e <__fixsfsi>
 810:	dc 01       	movw	r26, r24
 812:	cb 01       	movw	r24, r22
 814:	90 93 13 02 	sts	0x0213, r25
 818:	80 93 12 02 	sts	0x0212, r24
		
		if(Left_white_line < 0x28)
 81c:	18 32       	cpi	r17, 0x28	; 40
 81e:	80 f4       	brcc	.+32     	; 0x840 <main+0x18a>
		{
			forward();
 820:	0e 94 80 02 	call	0x500	; 0x500 <forward>
			velocity(100+PID, 100-PID);
 824:	f3 01       	movw	r30, r6
 826:	80 81       	ld	r24, Z
 828:	60 2f       	mov	r22, r16
 82a:	68 1b       	sub	r22, r24
 82c:	8c 59       	subi	r24, 0x9C	; 156
 82e:	0e 94 61 02 	call	0x4c2	; 0x4c2 <velocity>
 832:	87 ea       	ldi	r24, 0xA7	; 167
 834:	91 e6       	ldi	r25, 0x61	; 97
 836:	01 97       	sbiw	r24, 0x01	; 1
 838:	f1 f7       	brne	.-4      	; 0x836 <main+0x180>
 83a:	00 c0       	rjmp	.+0      	; 0x83c <main+0x186>
 83c:	00 00       	nop
 83e:	4d cf       	rjmp	.-358    	; 0x6da <main+0x24>
			_delay_ms(100);
		}
		else
		{
			forward();
 840:	0e 94 80 02 	call	0x500	; 0x500 <forward>
			velocity(100-PID, 100+PID);
 844:	f3 01       	movw	r30, r6
 846:	80 81       	ld	r24, Z
 848:	68 2f       	mov	r22, r24
 84a:	6c 59       	subi	r22, 0x9C	; 156
 84c:	f0 2f       	mov	r31, r16
 84e:	f8 1b       	sub	r31, r24
 850:	8f 2f       	mov	r24, r31
 852:	0e 94 61 02 	call	0x4c2	; 0x4c2 <velocity>
 856:	87 ea       	ldi	r24, 0xA7	; 167
 858:	91 e6       	ldi	r25, 0x61	; 97
 85a:	01 97       	sbiw	r24, 0x01	; 1
 85c:	f1 f7       	brne	.-4      	; 0x85a <main+0x1a4>
 85e:	00 c0       	rjmp	.+0      	; 0x860 <main+0x1aa>
 860:	00 00       	nop
 862:	3b cf       	rjmp	.-394    	; 0x6da <main+0x24>

00000864 <__subsf3>:
 864:	50 58       	subi	r21, 0x80	; 128

00000866 <__addsf3>:
 866:	bb 27       	eor	r27, r27
 868:	aa 27       	eor	r26, r26
 86a:	0e d0       	rcall	.+28     	; 0x888 <__addsf3x>
 86c:	e5 c0       	rjmp	.+458    	; 0xa38 <__fp_round>
 86e:	d6 d0       	rcall	.+428    	; 0xa1c <__fp_pscA>
 870:	30 f0       	brcs	.+12     	; 0x87e <__addsf3+0x18>
 872:	db d0       	rcall	.+438    	; 0xa2a <__fp_pscB>
 874:	20 f0       	brcs	.+8      	; 0x87e <__addsf3+0x18>
 876:	31 f4       	brne	.+12     	; 0x884 <__addsf3+0x1e>
 878:	9f 3f       	cpi	r25, 0xFF	; 255
 87a:	11 f4       	brne	.+4      	; 0x880 <__addsf3+0x1a>
 87c:	1e f4       	brtc	.+6      	; 0x884 <__addsf3+0x1e>
 87e:	cb c0       	rjmp	.+406    	; 0xa16 <__fp_nan>
 880:	0e f4       	brtc	.+2      	; 0x884 <__addsf3+0x1e>
 882:	e0 95       	com	r30
 884:	e7 fb       	bst	r30, 7
 886:	c1 c0       	rjmp	.+386    	; 0xa0a <__fp_inf>

00000888 <__addsf3x>:
 888:	e9 2f       	mov	r30, r25
 88a:	e7 d0       	rcall	.+462    	; 0xa5a <__fp_split3>
 88c:	80 f3       	brcs	.-32     	; 0x86e <__addsf3+0x8>
 88e:	ba 17       	cp	r27, r26
 890:	62 07       	cpc	r22, r18
 892:	73 07       	cpc	r23, r19
 894:	84 07       	cpc	r24, r20
 896:	95 07       	cpc	r25, r21
 898:	18 f0       	brcs	.+6      	; 0x8a0 <__addsf3x+0x18>
 89a:	71 f4       	brne	.+28     	; 0x8b8 <__addsf3x+0x30>
 89c:	9e f5       	brtc	.+102    	; 0x904 <__addsf3x+0x7c>
 89e:	ff c0       	rjmp	.+510    	; 0xa9e <__fp_zero>
 8a0:	0e f4       	brtc	.+2      	; 0x8a4 <__addsf3x+0x1c>
 8a2:	e0 95       	com	r30
 8a4:	0b 2e       	mov	r0, r27
 8a6:	ba 2f       	mov	r27, r26
 8a8:	a0 2d       	mov	r26, r0
 8aa:	0b 01       	movw	r0, r22
 8ac:	b9 01       	movw	r22, r18
 8ae:	90 01       	movw	r18, r0
 8b0:	0c 01       	movw	r0, r24
 8b2:	ca 01       	movw	r24, r20
 8b4:	a0 01       	movw	r20, r0
 8b6:	11 24       	eor	r1, r1
 8b8:	ff 27       	eor	r31, r31
 8ba:	59 1b       	sub	r21, r25
 8bc:	99 f0       	breq	.+38     	; 0x8e4 <__addsf3x+0x5c>
 8be:	59 3f       	cpi	r21, 0xF9	; 249
 8c0:	50 f4       	brcc	.+20     	; 0x8d6 <__addsf3x+0x4e>
 8c2:	50 3e       	cpi	r21, 0xE0	; 224
 8c4:	68 f1       	brcs	.+90     	; 0x920 <__addsf3x+0x98>
 8c6:	1a 16       	cp	r1, r26
 8c8:	f0 40       	sbci	r31, 0x00	; 0
 8ca:	a2 2f       	mov	r26, r18
 8cc:	23 2f       	mov	r18, r19
 8ce:	34 2f       	mov	r19, r20
 8d0:	44 27       	eor	r20, r20
 8d2:	58 5f       	subi	r21, 0xF8	; 248
 8d4:	f3 cf       	rjmp	.-26     	; 0x8bc <__addsf3x+0x34>
 8d6:	46 95       	lsr	r20
 8d8:	37 95       	ror	r19
 8da:	27 95       	ror	r18
 8dc:	a7 95       	ror	r26
 8de:	f0 40       	sbci	r31, 0x00	; 0
 8e0:	53 95       	inc	r21
 8e2:	c9 f7       	brne	.-14     	; 0x8d6 <__addsf3x+0x4e>
 8e4:	7e f4       	brtc	.+30     	; 0x904 <__addsf3x+0x7c>
 8e6:	1f 16       	cp	r1, r31
 8e8:	ba 0b       	sbc	r27, r26
 8ea:	62 0b       	sbc	r22, r18
 8ec:	73 0b       	sbc	r23, r19
 8ee:	84 0b       	sbc	r24, r20
 8f0:	ba f0       	brmi	.+46     	; 0x920 <__addsf3x+0x98>
 8f2:	91 50       	subi	r25, 0x01	; 1
 8f4:	a1 f0       	breq	.+40     	; 0x91e <__addsf3x+0x96>
 8f6:	ff 0f       	add	r31, r31
 8f8:	bb 1f       	adc	r27, r27
 8fa:	66 1f       	adc	r22, r22
 8fc:	77 1f       	adc	r23, r23
 8fe:	88 1f       	adc	r24, r24
 900:	c2 f7       	brpl	.-16     	; 0x8f2 <__addsf3x+0x6a>
 902:	0e c0       	rjmp	.+28     	; 0x920 <__addsf3x+0x98>
 904:	ba 0f       	add	r27, r26
 906:	62 1f       	adc	r22, r18
 908:	73 1f       	adc	r23, r19
 90a:	84 1f       	adc	r24, r20
 90c:	48 f4       	brcc	.+18     	; 0x920 <__addsf3x+0x98>
 90e:	87 95       	ror	r24
 910:	77 95       	ror	r23
 912:	67 95       	ror	r22
 914:	b7 95       	ror	r27
 916:	f7 95       	ror	r31
 918:	9e 3f       	cpi	r25, 0xFE	; 254
 91a:	08 f0       	brcs	.+2      	; 0x91e <__addsf3x+0x96>
 91c:	b3 cf       	rjmp	.-154    	; 0x884 <__addsf3+0x1e>
 91e:	93 95       	inc	r25
 920:	88 0f       	add	r24, r24
 922:	08 f0       	brcs	.+2      	; 0x926 <__addsf3x+0x9e>
 924:	99 27       	eor	r25, r25
 926:	ee 0f       	add	r30, r30
 928:	97 95       	ror	r25
 92a:	87 95       	ror	r24
 92c:	08 95       	ret

0000092e <__fixsfsi>:
 92e:	04 d0       	rcall	.+8      	; 0x938 <__fixunssfsi>
 930:	68 94       	set
 932:	b1 11       	cpse	r27, r1
 934:	b5 c0       	rjmp	.+362    	; 0xaa0 <__fp_szero>
 936:	08 95       	ret

00000938 <__fixunssfsi>:
 938:	98 d0       	rcall	.+304    	; 0xa6a <__fp_splitA>
 93a:	88 f0       	brcs	.+34     	; 0x95e <__fixunssfsi+0x26>
 93c:	9f 57       	subi	r25, 0x7F	; 127
 93e:	90 f0       	brcs	.+36     	; 0x964 <__fixunssfsi+0x2c>
 940:	b9 2f       	mov	r27, r25
 942:	99 27       	eor	r25, r25
 944:	b7 51       	subi	r27, 0x17	; 23
 946:	a0 f0       	brcs	.+40     	; 0x970 <__fixunssfsi+0x38>
 948:	d1 f0       	breq	.+52     	; 0x97e <__fixunssfsi+0x46>
 94a:	66 0f       	add	r22, r22
 94c:	77 1f       	adc	r23, r23
 94e:	88 1f       	adc	r24, r24
 950:	99 1f       	adc	r25, r25
 952:	1a f0       	brmi	.+6      	; 0x95a <__fixunssfsi+0x22>
 954:	ba 95       	dec	r27
 956:	c9 f7       	brne	.-14     	; 0x94a <__fixunssfsi+0x12>
 958:	12 c0       	rjmp	.+36     	; 0x97e <__fixunssfsi+0x46>
 95a:	b1 30       	cpi	r27, 0x01	; 1
 95c:	81 f0       	breq	.+32     	; 0x97e <__fixunssfsi+0x46>
 95e:	9f d0       	rcall	.+318    	; 0xa9e <__fp_zero>
 960:	b1 e0       	ldi	r27, 0x01	; 1
 962:	08 95       	ret
 964:	9c c0       	rjmp	.+312    	; 0xa9e <__fp_zero>
 966:	67 2f       	mov	r22, r23
 968:	78 2f       	mov	r23, r24
 96a:	88 27       	eor	r24, r24
 96c:	b8 5f       	subi	r27, 0xF8	; 248
 96e:	39 f0       	breq	.+14     	; 0x97e <__fixunssfsi+0x46>
 970:	b9 3f       	cpi	r27, 0xF9	; 249
 972:	cc f3       	brlt	.-14     	; 0x966 <__fixunssfsi+0x2e>
 974:	86 95       	lsr	r24
 976:	77 95       	ror	r23
 978:	67 95       	ror	r22
 97a:	b3 95       	inc	r27
 97c:	d9 f7       	brne	.-10     	; 0x974 <__fixunssfsi+0x3c>
 97e:	3e f4       	brtc	.+14     	; 0x98e <__fixunssfsi+0x56>
 980:	90 95       	com	r25
 982:	80 95       	com	r24
 984:	70 95       	com	r23
 986:	61 95       	neg	r22
 988:	7f 4f       	sbci	r23, 0xFF	; 255
 98a:	8f 4f       	sbci	r24, 0xFF	; 255
 98c:	9f 4f       	sbci	r25, 0xFF	; 255
 98e:	08 95       	ret

00000990 <__floatunsisf>:
 990:	e8 94       	clt
 992:	09 c0       	rjmp	.+18     	; 0x9a6 <__floatsisf+0x12>

00000994 <__floatsisf>:
 994:	97 fb       	bst	r25, 7
 996:	3e f4       	brtc	.+14     	; 0x9a6 <__floatsisf+0x12>
 998:	90 95       	com	r25
 99a:	80 95       	com	r24
 99c:	70 95       	com	r23
 99e:	61 95       	neg	r22
 9a0:	7f 4f       	sbci	r23, 0xFF	; 255
 9a2:	8f 4f       	sbci	r24, 0xFF	; 255
 9a4:	9f 4f       	sbci	r25, 0xFF	; 255
 9a6:	99 23       	and	r25, r25
 9a8:	a9 f0       	breq	.+42     	; 0x9d4 <__floatsisf+0x40>
 9aa:	f9 2f       	mov	r31, r25
 9ac:	96 e9       	ldi	r25, 0x96	; 150
 9ae:	bb 27       	eor	r27, r27
 9b0:	93 95       	inc	r25
 9b2:	f6 95       	lsr	r31
 9b4:	87 95       	ror	r24
 9b6:	77 95       	ror	r23
 9b8:	67 95       	ror	r22
 9ba:	b7 95       	ror	r27
 9bc:	f1 11       	cpse	r31, r1
 9be:	f8 cf       	rjmp	.-16     	; 0x9b0 <__floatsisf+0x1c>
 9c0:	fa f4       	brpl	.+62     	; 0xa00 <__floatsisf+0x6c>
 9c2:	bb 0f       	add	r27, r27
 9c4:	11 f4       	brne	.+4      	; 0x9ca <__floatsisf+0x36>
 9c6:	60 ff       	sbrs	r22, 0
 9c8:	1b c0       	rjmp	.+54     	; 0xa00 <__floatsisf+0x6c>
 9ca:	6f 5f       	subi	r22, 0xFF	; 255
 9cc:	7f 4f       	sbci	r23, 0xFF	; 255
 9ce:	8f 4f       	sbci	r24, 0xFF	; 255
 9d0:	9f 4f       	sbci	r25, 0xFF	; 255
 9d2:	16 c0       	rjmp	.+44     	; 0xa00 <__floatsisf+0x6c>
 9d4:	88 23       	and	r24, r24
 9d6:	11 f0       	breq	.+4      	; 0x9dc <__floatsisf+0x48>
 9d8:	96 e9       	ldi	r25, 0x96	; 150
 9da:	11 c0       	rjmp	.+34     	; 0x9fe <__floatsisf+0x6a>
 9dc:	77 23       	and	r23, r23
 9de:	21 f0       	breq	.+8      	; 0x9e8 <__floatsisf+0x54>
 9e0:	9e e8       	ldi	r25, 0x8E	; 142
 9e2:	87 2f       	mov	r24, r23
 9e4:	76 2f       	mov	r23, r22
 9e6:	05 c0       	rjmp	.+10     	; 0x9f2 <__floatsisf+0x5e>
 9e8:	66 23       	and	r22, r22
 9ea:	71 f0       	breq	.+28     	; 0xa08 <__floatsisf+0x74>
 9ec:	96 e8       	ldi	r25, 0x86	; 134
 9ee:	86 2f       	mov	r24, r22
 9f0:	70 e0       	ldi	r23, 0x00	; 0
 9f2:	60 e0       	ldi	r22, 0x00	; 0
 9f4:	2a f0       	brmi	.+10     	; 0xa00 <__floatsisf+0x6c>
 9f6:	9a 95       	dec	r25
 9f8:	66 0f       	add	r22, r22
 9fa:	77 1f       	adc	r23, r23
 9fc:	88 1f       	adc	r24, r24
 9fe:	da f7       	brpl	.-10     	; 0x9f6 <__floatsisf+0x62>
 a00:	88 0f       	add	r24, r24
 a02:	96 95       	lsr	r25
 a04:	87 95       	ror	r24
 a06:	97 f9       	bld	r25, 7
 a08:	08 95       	ret

00000a0a <__fp_inf>:
 a0a:	97 f9       	bld	r25, 7
 a0c:	9f 67       	ori	r25, 0x7F	; 127
 a0e:	80 e8       	ldi	r24, 0x80	; 128
 a10:	70 e0       	ldi	r23, 0x00	; 0
 a12:	60 e0       	ldi	r22, 0x00	; 0
 a14:	08 95       	ret

00000a16 <__fp_nan>:
 a16:	9f ef       	ldi	r25, 0xFF	; 255
 a18:	80 ec       	ldi	r24, 0xC0	; 192
 a1a:	08 95       	ret

00000a1c <__fp_pscA>:
 a1c:	00 24       	eor	r0, r0
 a1e:	0a 94       	dec	r0
 a20:	16 16       	cp	r1, r22
 a22:	17 06       	cpc	r1, r23
 a24:	18 06       	cpc	r1, r24
 a26:	09 06       	cpc	r0, r25
 a28:	08 95       	ret

00000a2a <__fp_pscB>:
 a2a:	00 24       	eor	r0, r0
 a2c:	0a 94       	dec	r0
 a2e:	12 16       	cp	r1, r18
 a30:	13 06       	cpc	r1, r19
 a32:	14 06       	cpc	r1, r20
 a34:	05 06       	cpc	r0, r21
 a36:	08 95       	ret

00000a38 <__fp_round>:
 a38:	09 2e       	mov	r0, r25
 a3a:	03 94       	inc	r0
 a3c:	00 0c       	add	r0, r0
 a3e:	11 f4       	brne	.+4      	; 0xa44 <__fp_round+0xc>
 a40:	88 23       	and	r24, r24
 a42:	52 f0       	brmi	.+20     	; 0xa58 <__fp_round+0x20>
 a44:	bb 0f       	add	r27, r27
 a46:	40 f4       	brcc	.+16     	; 0xa58 <__fp_round+0x20>
 a48:	bf 2b       	or	r27, r31
 a4a:	11 f4       	brne	.+4      	; 0xa50 <__fp_round+0x18>
 a4c:	60 ff       	sbrs	r22, 0
 a4e:	04 c0       	rjmp	.+8      	; 0xa58 <__fp_round+0x20>
 a50:	6f 5f       	subi	r22, 0xFF	; 255
 a52:	7f 4f       	sbci	r23, 0xFF	; 255
 a54:	8f 4f       	sbci	r24, 0xFF	; 255
 a56:	9f 4f       	sbci	r25, 0xFF	; 255
 a58:	08 95       	ret

00000a5a <__fp_split3>:
 a5a:	57 fd       	sbrc	r21, 7
 a5c:	90 58       	subi	r25, 0x80	; 128
 a5e:	44 0f       	add	r20, r20
 a60:	55 1f       	adc	r21, r21
 a62:	59 f0       	breq	.+22     	; 0xa7a <__fp_splitA+0x10>
 a64:	5f 3f       	cpi	r21, 0xFF	; 255
 a66:	71 f0       	breq	.+28     	; 0xa84 <__fp_splitA+0x1a>
 a68:	47 95       	ror	r20

00000a6a <__fp_splitA>:
 a6a:	88 0f       	add	r24, r24
 a6c:	97 fb       	bst	r25, 7
 a6e:	99 1f       	adc	r25, r25
 a70:	61 f0       	breq	.+24     	; 0xa8a <__fp_splitA+0x20>
 a72:	9f 3f       	cpi	r25, 0xFF	; 255
 a74:	79 f0       	breq	.+30     	; 0xa94 <__fp_splitA+0x2a>
 a76:	87 95       	ror	r24
 a78:	08 95       	ret
 a7a:	12 16       	cp	r1, r18
 a7c:	13 06       	cpc	r1, r19
 a7e:	14 06       	cpc	r1, r20
 a80:	55 1f       	adc	r21, r21
 a82:	f2 cf       	rjmp	.-28     	; 0xa68 <__fp_split3+0xe>
 a84:	46 95       	lsr	r20
 a86:	f1 df       	rcall	.-30     	; 0xa6a <__fp_splitA>
 a88:	08 c0       	rjmp	.+16     	; 0xa9a <__fp_splitA+0x30>
 a8a:	16 16       	cp	r1, r22
 a8c:	17 06       	cpc	r1, r23
 a8e:	18 06       	cpc	r1, r24
 a90:	99 1f       	adc	r25, r25
 a92:	f1 cf       	rjmp	.-30     	; 0xa76 <__fp_splitA+0xc>
 a94:	86 95       	lsr	r24
 a96:	71 05       	cpc	r23, r1
 a98:	61 05       	cpc	r22, r1
 a9a:	08 94       	sec
 a9c:	08 95       	ret

00000a9e <__fp_zero>:
 a9e:	e8 94       	clt

00000aa0 <__fp_szero>:
 aa0:	bb 27       	eor	r27, r27
 aa2:	66 27       	eor	r22, r22
 aa4:	77 27       	eor	r23, r23
 aa6:	cb 01       	movw	r24, r22
 aa8:	97 f9       	bld	r25, 7
 aaa:	08 95       	ret

00000aac <__mulsf3>:
 aac:	0b d0       	rcall	.+22     	; 0xac4 <__mulsf3x>
 aae:	c4 cf       	rjmp	.-120    	; 0xa38 <__fp_round>
 ab0:	b5 df       	rcall	.-150    	; 0xa1c <__fp_pscA>
 ab2:	28 f0       	brcs	.+10     	; 0xabe <__mulsf3+0x12>
 ab4:	ba df       	rcall	.-140    	; 0xa2a <__fp_pscB>
 ab6:	18 f0       	brcs	.+6      	; 0xabe <__mulsf3+0x12>
 ab8:	95 23       	and	r25, r21
 aba:	09 f0       	breq	.+2      	; 0xabe <__mulsf3+0x12>
 abc:	a6 cf       	rjmp	.-180    	; 0xa0a <__fp_inf>
 abe:	ab cf       	rjmp	.-170    	; 0xa16 <__fp_nan>
 ac0:	11 24       	eor	r1, r1
 ac2:	ee cf       	rjmp	.-36     	; 0xaa0 <__fp_szero>

00000ac4 <__mulsf3x>:
 ac4:	ca df       	rcall	.-108    	; 0xa5a <__fp_split3>
 ac6:	a0 f3       	brcs	.-24     	; 0xab0 <__mulsf3+0x4>

00000ac8 <__mulsf3_pse>:
 ac8:	95 9f       	mul	r25, r21
 aca:	d1 f3       	breq	.-12     	; 0xac0 <__mulsf3+0x14>
 acc:	95 0f       	add	r25, r21
 ace:	50 e0       	ldi	r21, 0x00	; 0
 ad0:	55 1f       	adc	r21, r21
 ad2:	62 9f       	mul	r22, r18
 ad4:	f0 01       	movw	r30, r0
 ad6:	72 9f       	mul	r23, r18
 ad8:	bb 27       	eor	r27, r27
 ada:	f0 0d       	add	r31, r0
 adc:	b1 1d       	adc	r27, r1
 ade:	63 9f       	mul	r22, r19
 ae0:	aa 27       	eor	r26, r26
 ae2:	f0 0d       	add	r31, r0
 ae4:	b1 1d       	adc	r27, r1
 ae6:	aa 1f       	adc	r26, r26
 ae8:	64 9f       	mul	r22, r20
 aea:	66 27       	eor	r22, r22
 aec:	b0 0d       	add	r27, r0
 aee:	a1 1d       	adc	r26, r1
 af0:	66 1f       	adc	r22, r22
 af2:	82 9f       	mul	r24, r18
 af4:	22 27       	eor	r18, r18
 af6:	b0 0d       	add	r27, r0
 af8:	a1 1d       	adc	r26, r1
 afa:	62 1f       	adc	r22, r18
 afc:	73 9f       	mul	r23, r19
 afe:	b0 0d       	add	r27, r0
 b00:	a1 1d       	adc	r26, r1
 b02:	62 1f       	adc	r22, r18
 b04:	83 9f       	mul	r24, r19
 b06:	a0 0d       	add	r26, r0
 b08:	61 1d       	adc	r22, r1
 b0a:	22 1f       	adc	r18, r18
 b0c:	74 9f       	mul	r23, r20
 b0e:	33 27       	eor	r19, r19
 b10:	a0 0d       	add	r26, r0
 b12:	61 1d       	adc	r22, r1
 b14:	23 1f       	adc	r18, r19
 b16:	84 9f       	mul	r24, r20
 b18:	60 0d       	add	r22, r0
 b1a:	21 1d       	adc	r18, r1
 b1c:	82 2f       	mov	r24, r18
 b1e:	76 2f       	mov	r23, r22
 b20:	6a 2f       	mov	r22, r26
 b22:	11 24       	eor	r1, r1
 b24:	9f 57       	subi	r25, 0x7F	; 127
 b26:	50 40       	sbci	r21, 0x00	; 0
 b28:	8a f0       	brmi	.+34     	; 0xb4c <__mulsf3_pse+0x84>
 b2a:	e1 f0       	breq	.+56     	; 0xb64 <__mulsf3_pse+0x9c>
 b2c:	88 23       	and	r24, r24
 b2e:	4a f0       	brmi	.+18     	; 0xb42 <__mulsf3_pse+0x7a>
 b30:	ee 0f       	add	r30, r30
 b32:	ff 1f       	adc	r31, r31
 b34:	bb 1f       	adc	r27, r27
 b36:	66 1f       	adc	r22, r22
 b38:	77 1f       	adc	r23, r23
 b3a:	88 1f       	adc	r24, r24
 b3c:	91 50       	subi	r25, 0x01	; 1
 b3e:	50 40       	sbci	r21, 0x00	; 0
 b40:	a9 f7       	brne	.-22     	; 0xb2c <__mulsf3_pse+0x64>
 b42:	9e 3f       	cpi	r25, 0xFE	; 254
 b44:	51 05       	cpc	r21, r1
 b46:	70 f0       	brcs	.+28     	; 0xb64 <__mulsf3_pse+0x9c>
 b48:	60 cf       	rjmp	.-320    	; 0xa0a <__fp_inf>
 b4a:	aa cf       	rjmp	.-172    	; 0xaa0 <__fp_szero>
 b4c:	5f 3f       	cpi	r21, 0xFF	; 255
 b4e:	ec f3       	brlt	.-6      	; 0xb4a <__mulsf3_pse+0x82>
 b50:	98 3e       	cpi	r25, 0xE8	; 232
 b52:	dc f3       	brlt	.-10     	; 0xb4a <__mulsf3_pse+0x82>
 b54:	86 95       	lsr	r24
 b56:	77 95       	ror	r23
 b58:	67 95       	ror	r22
 b5a:	b7 95       	ror	r27
 b5c:	f7 95       	ror	r31
 b5e:	e7 95       	ror	r30
 b60:	9f 5f       	subi	r25, 0xFF	; 255
 b62:	c1 f7       	brne	.-16     	; 0xb54 <__mulsf3_pse+0x8c>
 b64:	fe 2b       	or	r31, r30
 b66:	88 0f       	add	r24, r24
 b68:	91 1d       	adc	r25, r1
 b6a:	96 95       	lsr	r25
 b6c:	87 95       	ror	r24
 b6e:	97 f9       	bld	r25, 7
 b70:	08 95       	ret

00000b72 <__udivmodhi4>:
 b72:	aa 1b       	sub	r26, r26
 b74:	bb 1b       	sub	r27, r27
 b76:	51 e1       	ldi	r21, 0x11	; 17
 b78:	07 c0       	rjmp	.+14     	; 0xb88 <__udivmodhi4_ep>

00000b7a <__udivmodhi4_loop>:
 b7a:	aa 1f       	adc	r26, r26
 b7c:	bb 1f       	adc	r27, r27
 b7e:	a6 17       	cp	r26, r22
 b80:	b7 07       	cpc	r27, r23
 b82:	10 f0       	brcs	.+4      	; 0xb88 <__udivmodhi4_ep>
 b84:	a6 1b       	sub	r26, r22
 b86:	b7 0b       	sbc	r27, r23

00000b88 <__udivmodhi4_ep>:
 b88:	88 1f       	adc	r24, r24
 b8a:	99 1f       	adc	r25, r25
 b8c:	5a 95       	dec	r21
 b8e:	a9 f7       	brne	.-22     	; 0xb7a <__udivmodhi4_loop>
 b90:	80 95       	com	r24
 b92:	90 95       	com	r25
 b94:	bc 01       	movw	r22, r24
 b96:	cd 01       	movw	r24, r26
 b98:	08 95       	ret

00000b9a <_exit>:
 b9a:	f8 94       	cli

00000b9c <__stop_program>:
 b9c:	ff cf       	rjmp	.-2      	; 0xb9c <__stop_program>
